; Function Attrs: mustprogress uwtable
define hidden void @_ZN3sat10simplifier12init_visitedEv(ptr noundef nonnull align 8 dereferenceable(288) %this) local_unnamed_addr #3 align 2 {
entry:
  %m_visited = getelementptr inbounds i8, ptr %this, i64 96
  %0 = load ptr, ptr %m_visited, align 8
  %tobool.not.i = icmp eq ptr %0, null
  br i1 %tobool.not.i, label %_ZN6vectorIcLb0EjE5resetEv.exit, label %if.then.i

if.then.i:                                        ; preds = %entry
  %arrayidx.i = getelementptr inbounds i8, ptr %0, i64 -4
  store i32 0, ptr %arrayidx.i, align 4
  br label %_ZN6vectorIcLb0EjE5resetEv.exit

_ZN6vectorIcLb0EjE5resetEv.exit:                  ; preds = %entry, %if.then.i
  %1 = load ptr, ptr %this, align 8
  %m_justification.i = getelementptr inbounds i8, ptr %1, i64 3448
  %2 = load ptr, ptr %m_justification.i, align 8
  %cmp.i.i = icmp eq ptr %2, null
  br i1 %cmp.i.i, label %_ZNK3sat6solver8num_varsEv.exit.thread, label %_ZNK3sat6solver8num_varsEv.exit

_ZNK3sat6solver8num_varsEv.exit:                  ; preds = %_ZN6vectorIcLb0EjE5resetEv.exit
  %arrayidx.i.i = getelementptr inbounds i8, ptr %2, i64 -4
  %3 = load i32, ptr %arrayidx.i.i, align 4
  %4 = shl i32 %3, 1
  %5 = load ptr, ptr %m_visited, align 8
  %cmp.i.i1 = icmp eq ptr %5, null
  br i1 %cmp.i.i1, label %_ZNK6vectorIcLb0EjE4sizeEv.exit.i, label %_ZNK6vectorIcLb0EjE4sizeEv.exit.thread.i

_ZNK3sat6solver8num_varsEv.exit.thread:           ; preds = %_ZN6vectorIcLb0EjE5resetEv.exit
  %6 = load ptr, ptr %m_visited, align 8
  %cmp.i.i15 = icmp eq ptr %6, null
  br i1 %cmp.i.i15, label %_ZN6vectorIcLb0EjE6resizeIbEEvjT_z.exit, label %_ZNK6vectorIcLb0EjE4sizeEv.exit.thread.i.thread

_ZNK6vectorIcLb0EjE4sizeEv.exit.thread.i.thread:  ; preds = %_ZNK3sat6solver8num_varsEv.exit.thread
  %arrayidx.i.i213 = getelementptr inbounds i8, ptr %6, i64 -4
  br label %if.then.i.i

_ZNK6vectorIcLb0EjE4sizeEv.exit.i:                ; preds = %_ZNK3sat6solver8num_varsEv.exit
  %cmp.not.not.i = icmp eq i32 %4, 0
  br i1 %cmp.not.not.i, label %_ZN6vectorIcLb0EjE6resizeIbEEvjT_z.exit, label %while.cond.i.preheader

_ZNK6vectorIcLb0EjE4sizeEv.exit.thread.i:         ; preds = %_ZNK3sat6solver8num_varsEv.exit
  %arrayidx.i.i2 = getelementptr inbounds i8, ptr %5, i64 -4
  %7 = load i32, ptr %arrayidx.i.i2, align 4
  %cmp.not15.i = icmp ult i32 %7, %4
  br i1 %cmp.not15.i, label %while.cond.i.preheader, label %if.then.i.i

while.cond.i.preheader:                           ; preds = %_ZNK6vectorIcLb0EjE4sizeEv.exit.i, %_ZNK6vectorIcLb0EjE4sizeEv.exit.thread.i
  %.ph = phi ptr [ %5, %_ZNK6vectorIcLb0EjE4sizeEv.exit.thread.i ], [ null, %_ZNK6vectorIcLb0EjE4sizeEv.exit.i ]
  %retval.0.i16.i.ph = phi i32 [ %7, %_ZNK6vectorIcLb0EjE4sizeEv.exit.thread.i ], [ 0, %_ZNK6vectorIcLb0EjE4sizeEv.exit.i ]
  br label %while.cond.i

if.then.i.i:                                      ; preds = %_ZNK6vectorIcLb0EjE4sizeEv.exit.thread.i.thread, %_ZNK6vectorIcLb0EjE4sizeEv.exit.thread.i
  %arrayidx.i.i216 = phi ptr [ %arrayidx.i.i213, %_ZNK6vectorIcLb0EjE4sizeEv.exit.thread.i.thread ], [ %arrayidx.i.i2, %_ZNK6vectorIcLb0EjE4sizeEv.exit.thread.i ]
  %retval.0.i.i915 = phi i32 [ 0, %_ZNK6vectorIcLb0EjE4sizeEv.exit.thread.i.thread ], [ %4, %_ZNK6vectorIcLb0EjE4sizeEv.exit.thread.i ]
  store i32 %retval.0.i.i915, ptr %arrayidx.i.i216, align 4
  br label %_ZN6vectorIcLb0EjE6resizeIbEEvjT_z.exit

while.cond.i:                                     ; preds = %while.cond.i.preheader, %while.body.i
  %8 = phi ptr [ %.pr.pre.i, %while.body.i ], [ %.ph, %while.cond.i.preheader ]
  %cmp.i10.i = icmp eq ptr %8, null
  br i1 %cmp.i10.i, label %_ZNK6vectorIcLb0EjE8capacityEv.exit.i, label %if.end.i11.i

if.end.i11.i:                                     ; preds = %while.cond.i
  %arrayidx.i12.i = getelementptr inbounds i8, ptr %8, i64 -8
  %9 = load i32, ptr %arrayidx.i12.i, align 4
  br label %_ZNK6vectorIcLb0EjE8capacityEv.exit.i

_ZNK6vectorIcLb0EjE8capacityEv.exit.i:            ; preds = %if.end.i11.i, %while.cond.i
  %retval.0.i13.i = phi i32 [ %9, %if.end.i11.i ], [ 0, %while.cond.i ]
  %cmp3.i = icmp ult i32 %retval.0.i13.i, %4
  br i1 %cmp3.i, label %while.body.i, label %while.end.i

while.body.i:                                     ; preds = %_ZNK6vectorIcLb0EjE8capacityEv.exit.i
  tail call void @_ZN6vectorIcLb0EjE13expand_vectorEv(ptr noundef nonnull align 8 dereferenceable(8) %m_visited)
  %.pr.pre.i = load ptr, ptr %m_visited, align 8
  br label %while.cond.i, !llvm.loop !10

while.end.i:                                      ; preds = %_ZNK6vectorIcLb0EjE8capacityEv.exit.i
  %arrayidx.i3 = getelementptr inbounds i8, ptr %8, i64 -4
  store i32 %4, ptr %arrayidx.i3, align 4
  %cmp8.not17.i = icmp eq i32 %retval.0.i16.i.ph, %4
  br i1 %cmp8.not17.i, label %_ZN6vectorIcLb0EjE6resizeIbEEvjT_z.exit, label %for.body.preheader.i

for.body.preheader.i:                             ; preds = %while.end.i
  %idx.ext6.i = zext i32 %4 to i64
  %10 = load ptr, ptr %m_visited, align 8
  %idx.ext.i = zext i32 %retval.0.i16.i.ph to i64
  %add.ptr.i = getelementptr i8, ptr %10, i64 %idx.ext.i
  %11 = sub nsw i64 %idx.ext6.i, %idx.ext.i
  tail call void @llvm.memset.p0.i64(ptr align 1 %add.ptr.i, i8 0, i64 %11, i1 false)
  br label %_ZN6vectorIcLb0EjE6resizeIbEEvjT_z.exit

_ZN6vectorIcLb0EjE6resizeIbEEvjT_z.exit:          ; preds = %_ZNK3sat6solver8num_varsEv.exit.thread, %_ZNK6vectorIcLb0EjE4sizeEv.exit.i, %if.then.i.i, %while.end.i, %for.body.preheader.i
  ret void
}